target datalayout = "e-m:e-p270:32:32-p271:32:32-p272:64:64-i64:64-i128:128-f80:128-n8:16:32:64-S128"
target triple = "x86_64-pc-linux-gnu"

%struct.peak_s = type { i64, i64 }
%struct.activity_callback_thunk_s = type { ptr, ptr }
%struct.tsd_s = type { i8, i8, i8, i64, i64, i64, i64, i64, i64, i64, i64, i64, i64, i64, i64, ptr, i64, i64, i64, ptr, ptr, %struct.ticker_geom_s, i8, %struct.tsd_binshards_s, %struct.tsd_link_t, i8, %struct.peak_s, %struct.activity_callback_thunk_s, %struct.tcache_slow_s, %struct.rtree_ctx_s, %struct.atomic_u8_t, i64, i64, i64, i64, %struct.tcache_s, %struct.witness_tsd_s }
%struct.ticker_geom_s = type { i32, i32 }
%struct.tsd_binshards_s = type { [36 x i8] }
%struct.tsd_link_t = type { ptr, ptr }
%struct.tcache_slow_s = type { %struct.anon, %struct.cache_bin_array_descriptor_s, ptr, i32, i32, [36 x i8], [36 x i8], [36 x i8], ptr, ptr }
%struct.anon = type { ptr, ptr }
%struct.cache_bin_array_descriptor_s = type { %struct.anon.0, ptr }
%struct.anon.0 = type { ptr, ptr }
%struct.rtree_ctx_s = type { [16 x %struct.rtree_ctx_cache_elm_s], [8 x %struct.rtree_ctx_cache_elm_s] }
%struct.rtree_ctx_cache_elm_s = type { i64, ptr }
%struct.atomic_u8_t = type { i8 }
%struct.tcache_s = type { ptr, [73 x %struct.cache_bin_s] }
%struct.cache_bin_s = type { ptr, %struct.cache_bin_stats_s, i16, i16, i16, %struct.cache_bin_info_s }
%struct.cache_bin_stats_s = type { i64 }
%struct.cache_bin_info_s = type { i16 }
%struct.witness_tsd_s = type { %struct.witness_list_t, i8 }
%struct.witness_list_t = type { ptr }

; Function Attrs: nounwind uwtable
define void @duckdb_je_peak_event_update(ptr noundef %0) #0 {
  %2 = alloca ptr, align 8
  %3 = alloca i64, align 8
  %4 = alloca i64, align 8
  %5 = alloca ptr, align 8
  store ptr %0, ptr %2, align 8, !tbaa !3
  call void @llvm.lifetime.start.p0(i64 8, ptr %3) #4
  %6 = load ptr, ptr %2, align 8, !tbaa !3
  %7 = call i64 @tsd_thread_allocated_get(ptr noundef %6)
  store i64 %7, ptr %3, align 8, !tbaa !8
  call void @llvm.lifetime.start.p0(i64 8, ptr %4) #4
  %8 = load ptr, ptr %2, align 8, !tbaa !3
  %9 = call i64 @tsd_thread_deallocated_get(ptr noundef %8)
  store i64 %9, ptr %4, align 8, !tbaa !8
  call void @llvm.lifetime.start.p0(i64 8, ptr %5) #4
  %10 = load ptr, ptr %2, align 8, !tbaa !3
  %11 = call ptr @tsd_peakp_get(ptr noundef %10)
  store ptr %11, ptr %5, align 8, !tbaa !10
  %12 = load ptr, ptr %5, align 8, !tbaa !10
  %13 = load i64, ptr %3, align 8, !tbaa !8
  %14 = load i64, ptr %4, align 8, !tbaa !8
  call void @peak_update(ptr noundef %12, i64 noundef %13, i64 noundef %14)
  call void @llvm.lifetime.end.p0(i64 8, ptr %5) #4
  call void @llvm.lifetime.end.p0(i64 8, ptr %4) #4
  call void @llvm.lifetime.end.p0(i64 8, ptr %3) #4
  ret void
}

; Function Attrs: nocallback nofree nosync nounwind willreturn memory(argmem: readwrite)
declare void @llvm.lifetime.start.p0(i64 immarg, ptr captures(none)) #1

; Function Attrs: alwaysinline nounwind uwtable
define internal i64 @tsd_thread_allocated_get(ptr noundef %0) #2 {
  %2 = alloca ptr, align 8
  store ptr %0, ptr %2, align 8, !tbaa !3
  %3 = load ptr, ptr %2, align 8, !tbaa !3
  %4 = call ptr @tsd_thread_allocatedp_get(ptr noundef %3)
  %5 = load i64, ptr %4, align 8, !tbaa !8
  ret i64 %5
}

; Function Attrs: alwaysinline nounwind uwtable
define internal i64 @tsd_thread_deallocated_get(ptr noundef %0) #2 {
  %2 = alloca ptr, align 8
  store ptr %0, ptr %2, align 8, !tbaa !3
  %3 = load ptr, ptr %2, align 8, !tbaa !3
  %4 = call ptr @tsd_thread_deallocatedp_get(ptr noundef %3)
  %5 = load i64, ptr %4, align 8, !tbaa !8
  ret i64 %5
}

; Function Attrs: alwaysinline nounwind uwtable
define internal ptr @tsd_peakp_get(ptr noundef %0) #2 {
  %2 = alloca ptr, align 8
  %3 = alloca i8, align 1
  store ptr %0, ptr %2, align 8, !tbaa !3
  call void @llvm.lifetime.start.p0(i64 1, ptr %3) #4
  %4 = load ptr, ptr %2, align 8, !tbaa !3
  %5 = call zeroext i8 @tsd_state_get(ptr noundef %4)
  store i8 %5, ptr %3, align 1, !tbaa !12
  br label %6

6:                                                ; preds = %1
  br label %7

7:                                                ; preds = %6
  br label %8

8:                                                ; preds = %7
  %9 = load ptr, ptr %2, align 8, !tbaa !3
  %10 = call ptr @tsd_peakp_get_unsafe(ptr noundef %9)
  call void @llvm.lifetime.end.p0(i64 1, ptr %3) #4
  ret ptr %10
}

; Function Attrs: inlinehint nounwind uwtable
define internal void @peak_update(ptr noundef %0, i64 noundef %1, i64 noundef %2) #3 {
  %4 = alloca ptr, align 8
  %5 = alloca i64, align 8
  %6 = alloca i64, align 8
  %7 = alloca i64, align 8
  store ptr %0, ptr %4, align 8, !tbaa !10
  store i64 %1, ptr %5, align 8, !tbaa !8
  store i64 %2, ptr %6, align 8, !tbaa !8
  call void @llvm.lifetime.start.p0(i64 8, ptr %7) #4
  %8 = load i64, ptr %5, align 8, !tbaa !8
  %9 = load i64, ptr %6, align 8, !tbaa !8
  %10 = sub i64 %8, %9
  %11 = load ptr, ptr %4, align 8, !tbaa !10
  %12 = getelementptr inbounds nuw %struct.peak_s, ptr %11, i32 0, i32 1
  %13 = load i64, ptr %12, align 8, !tbaa !13
  %14 = sub i64 %10, %13
  store i64 %14, ptr %7, align 8, !tbaa !8
  %15 = load i64, ptr %7, align 8, !tbaa !8
  %16 = load ptr, ptr %4, align 8, !tbaa !10
  %17 = getelementptr inbounds nuw %struct.peak_s, ptr %16, i32 0, i32 0
  %18 = load i64, ptr %17, align 8, !tbaa !15
  %19 = icmp sgt i64 %15, %18
  br i1 %19, label %20, label %24

20:                                               ; preds = %3
  %21 = load i64, ptr %7, align 8, !tbaa !8
  %22 = load ptr, ptr %4, align 8, !tbaa !10
  %23 = getelementptr inbounds nuw %struct.peak_s, ptr %22, i32 0, i32 0
  store i64 %21, ptr %23, align 8, !tbaa !15
  br label %24

24:                                               ; preds = %20, %3
  call void @llvm.lifetime.end.p0(i64 8, ptr %7) #4
  ret void
}

; Function Attrs: nocallback nofree nosync nounwind willreturn memory(argmem: readwrite)
declare void @llvm.lifetime.end.p0(i64 immarg, ptr captures(none)) #1

; Function Attrs: nounwind uwtable
define void @duckdb_je_peak_event_zero(ptr noundef %0) #0 {
  %2 = alloca ptr, align 8
  %3 = alloca i64, align 8
  %4 = alloca i64, align 8
  %5 = alloca ptr, align 8
  store ptr %0, ptr %2, align 8, !tbaa !3
  call void @llvm.lifetime.start.p0(i64 8, ptr %3) #4
  %6 = load ptr, ptr %2, align 8, !tbaa !3
  %7 = call i64 @tsd_thread_allocated_get(ptr noundef %6)
  store i64 %7, ptr %3, align 8, !tbaa !8
  call void @llvm.lifetime.start.p0(i64 8, ptr %4) #4
  %8 = load ptr, ptr %2, align 8, !tbaa !3
  %9 = call i64 @tsd_thread_deallocated_get(ptr noundef %8)
  store i64 %9, ptr %4, align 8, !tbaa !8
  call void @llvm.lifetime.start.p0(i64 8, ptr %5) #4
  %10 = load ptr, ptr %2, align 8, !tbaa !3
  %11 = call ptr @tsd_peakp_get(ptr noundef %10)
  store ptr %11, ptr %5, align 8, !tbaa !10
  %12 = load ptr, ptr %5, align 8, !tbaa !10
  %13 = load i64, ptr %3, align 8, !tbaa !8
  %14 = load i64, ptr %4, align 8, !tbaa !8
  call void @peak_set_zero(ptr noundef %12, i64 noundef %13, i64 noundef %14)
  call void @llvm.lifetime.end.p0(i64 8, ptr %5) #4
  call void @llvm.lifetime.end.p0(i64 8, ptr %4) #4
  call void @llvm.lifetime.end.p0(i64 8, ptr %3) #4
  ret void
}

; Function Attrs: inlinehint nounwind uwtable
define internal void @peak_set_zero(ptr noundef %0, i64 noundef %1, i64 noundef %2) #3 {
  %4 = alloca ptr, align 8
  %5 = alloca i64, align 8
  %6 = alloca i64, align 8
  store ptr %0, ptr %4, align 8, !tbaa !10
  store i64 %1, ptr %5, align 8, !tbaa !8
  store i64 %2, ptr %6, align 8, !tbaa !8
  %7 = load ptr, ptr %4, align 8, !tbaa !10
  %8 = getelementptr inbounds nuw %struct.peak_s, ptr %7, i32 0, i32 0
  store i64 0, ptr %8, align 8, !tbaa !15
  %9 = load i64, ptr %5, align 8, !tbaa !8
  %10 = load i64, ptr %6, align 8, !tbaa !8
  %11 = sub i64 %9, %10
  %12 = load ptr, ptr %4, align 8, !tbaa !10
  %13 = getelementptr inbounds nuw %struct.peak_s, ptr %12, i32 0, i32 1
  store i64 %11, ptr %13, align 8, !tbaa !13
  ret void
}

; Function Attrs: nounwind uwtable
define i64 @duckdb_je_peak_event_max(ptr noundef %0) #0 {
  %2 = alloca ptr, align 8
  %3 = alloca ptr, align 8
  store ptr %0, ptr %2, align 8, !tbaa !3
  call void @llvm.lifetime.start.p0(i64 8, ptr %3) #4
  %4 = load ptr, ptr %2, align 8, !tbaa !3
  %5 = call ptr @tsd_peakp_get(ptr noundef %4)
  store ptr %5, ptr %3, align 8, !tbaa !10
  %6 = load ptr, ptr %3, align 8, !tbaa !10
  %7 = call i64 @peak_max(ptr noundef %6)
  call void @llvm.lifetime.end.p0(i64 8, ptr %3) #4
  ret i64 %7
}

; Function Attrs: inlinehint nounwind uwtable
define internal i64 @peak_max(ptr noundef %0) #3 {
  %2 = alloca ptr, align 8
  store ptr %0, ptr %2, align 8, !tbaa !10
  %3 = load ptr, ptr %2, align 8, !tbaa !10
  %4 = getelementptr inbounds nuw %struct.peak_s, ptr %3, i32 0, i32 0
  %5 = load i64, ptr %4, align 8, !tbaa !15
  ret i64 %5
}

; Function Attrs: nounwind uwtable
define i64 @duckdb_je_peak_alloc_new_event_wait(ptr noundef %0) #0 {
  %2 = alloca ptr, align 8
  store ptr %0, ptr %2, align 8, !tbaa !3
  ret i64 65536
}

; Function Attrs: nounwind uwtable
define i64 @duckdb_je_peak_alloc_postponed_event_wait(ptr noundef %0) #0 {
  %2 = alloca ptr, align 8
  store ptr %0, ptr %2, align 8, !tbaa !3
  ret i64 1
}

; Function Attrs: nounwind uwtable
define void @duckdb_je_peak_alloc_event_handler(ptr noundef %0, i64 noundef %1) #0 {
  %3 = alloca ptr, align 8
  %4 = alloca i64, align 8
  store ptr %0, ptr %3, align 8, !tbaa !3
  store i64 %1, ptr %4, align 8, !tbaa !8
  %5 = load ptr, ptr %3, align 8, !tbaa !3
  call void @duckdb_je_peak_event_update(ptr noundef %5)
  %6 = load ptr, ptr %3, align 8, !tbaa !3
  call void @peak_event_activity_callback(ptr noundef %6)
  ret void
}

; Function Attrs: nounwind uwtable
define internal void @peak_event_activity_callback(ptr noundef %0) #0 {
  %2 = alloca ptr, align 8
  %3 = alloca ptr, align 8
  %4 = alloca i64, align 8
  %5 = alloca i64, align 8
  store ptr %0, ptr %2, align 8, !tbaa !3
  call void @llvm.lifetime.start.p0(i64 8, ptr %3) #4
  %6 = load ptr, ptr %2, align 8, !tbaa !3
  %7 = call ptr @tsd_activity_callback_thunkp_get(ptr noundef %6)
  store ptr %7, ptr %3, align 8, !tbaa !16
  call void @llvm.lifetime.start.p0(i64 8, ptr %4) #4
  %8 = load ptr, ptr %2, align 8, !tbaa !3
  %9 = call i64 @tsd_thread_allocated_get(ptr noundef %8)
  store i64 %9, ptr %4, align 8, !tbaa !8
  call void @llvm.lifetime.start.p0(i64 8, ptr %5) #4
  %10 = load ptr, ptr %2, align 8, !tbaa !3
  %11 = call i64 @tsd_thread_deallocated_get(ptr noundef %10)
  store i64 %11, ptr %5, align 8, !tbaa !8
  %12 = load ptr, ptr %3, align 8, !tbaa !16
  %13 = getelementptr inbounds nuw %struct.activity_callback_thunk_s, ptr %12, i32 0, i32 0
  %14 = load ptr, ptr %13, align 8, !tbaa !18
  %15 = icmp ne ptr %14, null
  br i1 %15, label %16, label %25

16:                                               ; preds = %1
  %17 = load ptr, ptr %3, align 8, !tbaa !16
  %18 = getelementptr inbounds nuw %struct.activity_callback_thunk_s, ptr %17, i32 0, i32 0
  %19 = load ptr, ptr %18, align 8, !tbaa !18
  %20 = load ptr, ptr %3, align 8, !tbaa !16
  %21 = getelementptr inbounds nuw %struct.activity_callback_thunk_s, ptr %20, i32 0, i32 1
  %22 = load ptr, ptr %21, align 8, !tbaa !20
  %23 = load i64, ptr %4, align 8, !tbaa !8
  %24 = load i64, ptr %5, align 8, !tbaa !8
  call void %19(ptr noundef %22, i64 noundef %23, i64 noundef %24)
  br label %25

25:                                               ; preds = %16, %1
  call void @llvm.lifetime.end.p0(i64 8, ptr %5) #4
  call void @llvm.lifetime.end.p0(i64 8, ptr %4) #4
  call void @llvm.lifetime.end.p0(i64 8, ptr %3) #4
  ret void
}

; Function Attrs: nounwind uwtable
define i64 @duckdb_je_peak_dalloc_new_event_wait(ptr noundef %0) #0 {
  %2 = alloca ptr, align 8
  store ptr %0, ptr %2, align 8, !tbaa !3
  ret i64 65536
}

; Function Attrs: nounwind uwtable
define i64 @duckdb_je_peak_dalloc_postponed_event_wait(ptr noundef %0) #0 {
  %2 = alloca ptr, align 8
  store ptr %0, ptr %2, align 8, !tbaa !3
  ret i64 1
}

; Function Attrs: nounwind uwtable
define void @duckdb_je_peak_dalloc_event_handler(ptr noundef %0, i64 noundef %1) #0 {
  %3 = alloca ptr, align 8
  %4 = alloca i64, align 8
  store ptr %0, ptr %3, align 8, !tbaa !3
  store i64 %1, ptr %4, align 8, !tbaa !8
  %5 = load ptr, ptr %3, align 8, !tbaa !3
  call void @duckdb_je_peak_event_update(ptr noundef %5)
  %6 = load ptr, ptr %3, align 8, !tbaa !3
  call void @peak_event_activity_callback(ptr noundef %6)
  ret void
}

; Function Attrs: alwaysinline nounwind uwtable
define internal ptr @tsd_thread_allocatedp_get(ptr noundef %0) #2 {
  %2 = alloca ptr, align 8
  %3 = alloca i8, align 1
  store ptr %0, ptr %2, align 8, !tbaa !3
  call void @llvm.lifetime.start.p0(i64 1, ptr %3) #4
  %4 = load ptr, ptr %2, align 8, !tbaa !3
  %5 = call zeroext i8 @tsd_state_get(ptr noundef %4)
  store i8 %5, ptr %3, align 1, !tbaa !12
  br label %6

6:                                                ; preds = %1
  br label %7

7:                                                ; preds = %6
  br label %8

8:                                                ; preds = %7
  %9 = load ptr, ptr %2, align 8, !tbaa !3
  %10 = call ptr @tsd_thread_allocatedp_get_unsafe(ptr noundef %9)
  call void @llvm.lifetime.end.p0(i64 1, ptr %3) #4
  ret ptr %10
}

; Function Attrs: alwaysinline nounwind uwtable
define internal zeroext i8 @tsd_state_get(ptr noundef %0) #2 {
  %2 = alloca ptr, align 8
  store ptr %0, ptr %2, align 8, !tbaa !3
  %3 = load ptr, ptr %2, align 8, !tbaa !3
  %4 = getelementptr inbounds nuw %struct.tsd_s, ptr %3, i32 0, i32 30
  %5 = load i8, ptr %4, align 8, !tbaa !12
  ret i8 %5
}

; Function Attrs: alwaysinline nounwind uwtable
define internal ptr @tsd_thread_allocatedp_get_unsafe(ptr noundef %0) #2 {
  %2 = alloca ptr, align 8
  store ptr %0, ptr %2, align 8, !tbaa !3
  %3 = load ptr, ptr %2, align 8, !tbaa !3
  %4 = getelementptr inbounds nuw %struct.tsd_s, ptr %3, i32 0, i32 31
  ret ptr %4
}

; Function Attrs: alwaysinline nounwind uwtable
define internal ptr @tsd_thread_deallocatedp_get(ptr noundef %0) #2 {
  %2 = alloca ptr, align 8
  %3 = alloca i8, align 1
  store ptr %0, ptr %2, align 8, !tbaa !3
  call void @llvm.lifetime.start.p0(i64 1, ptr %3) #4
  %4 = load ptr, ptr %2, align 8, !tbaa !3
  %5 = call zeroext i8 @tsd_state_get(ptr noundef %4)
  store i8 %5, ptr %3, align 1, !tbaa !12
  br label %6

6:                                                ; preds = %1
  br label %7

7:                                                ; preds = %6
  br label %8

8:                                                ; preds = %7
  %9 = load ptr, ptr %2, align 8, !tbaa !3
  %10 = call ptr @tsd_thread_deallocatedp_get_unsafe(ptr noundef %9)
  call void @llvm.lifetime.end.p0(i64 1, ptr %3) #4
  ret ptr %10
}

; Function Attrs: alwaysinline nounwind uwtable
define internal ptr @tsd_thread_deallocatedp_get_unsafe(ptr noundef %0) #2 {
  %2 = alloca ptr, align 8
  store ptr %0, ptr %2, align 8, !tbaa !3
  %3 = load ptr, ptr %2, align 8, !tbaa !3
  %4 = getelementptr inbounds nuw %struct.tsd_s, ptr %3, i32 0, i32 33
  ret ptr %4
}

; Function Attrs: alwaysinline nounwind uwtable
define internal ptr @tsd_peakp_get_unsafe(ptr noundef %0) #2 {
  %2 = alloca ptr, align 8
  store ptr %0, ptr %2, align 8, !tbaa !3
  %3 = load ptr, ptr %2, align 8, !tbaa !3
  %4 = getelementptr inbounds nuw %struct.tsd_s, ptr %3, i32 0, i32 26
  ret ptr %4
}

; Function Attrs: alwaysinline nounwind uwtable
define internal ptr @tsd_activity_callback_thunkp_get(ptr noundef %0) #2 {
  %2 = alloca ptr, align 8
  %3 = alloca i8, align 1
  store ptr %0, ptr %2, align 8, !tbaa !3
  call void @llvm.lifetime.start.p0(i64 1, ptr %3) #4
  %4 = load ptr, ptr %2, align 8, !tbaa !3
  %5 = call zeroext i8 @tsd_state_get(ptr noundef %4)
  store i8 %5, ptr %3, align 1, !tbaa !12
  br label %6

6:                                                ; preds = %1
  br label %7

7:                                                ; preds = %6
  br label %8

8:                                                ; preds = %7
  %9 = load ptr, ptr %2, align 8, !tbaa !3
  %10 = call ptr @tsd_activity_callback_thunkp_get_unsafe(ptr noundef %9)
  call void @llvm.lifetime.end.p0(i64 1, ptr %3) #4
  ret ptr %10
}

; Function Attrs: alwaysinline nounwind uwtable
define internal ptr @tsd_activity_callback_thunkp_get_unsafe(ptr noundef %0) #2 {
  %2 = alloca ptr, align 8
  store ptr %0, ptr %2, align 8, !tbaa !3
  %3 = load ptr, ptr %2, align 8, !tbaa !3
  %4 = getelementptr inbounds nuw %struct.tsd_s, ptr %3, i32 0, i32 27
  ret ptr %4
}


!llvm.module.flags = !{!0, !1, !2}

!0 = !{i32 1, !"wchar_size", i32 4}
!1 = !{i32 8, !"PIC Level", i32 2}
!2 = !{i32 7, !"uwtable", i32 2}
!3 = !{!4, !4, i64 0}
!4 = !{!"p1 _ZTS5tsd_s", !5, i64 0}
!5 = !{!"any pointer", !6, i64 0}
!6 = !{!"omnipotent char", !7, i64 0}
!7 = !{!"Simple C/C++ TBAA"}
!8 = !{!9, !9, i64 0}
!9 = !{!"long", !6, i64 0}
!10 = !{!11, !11, i64 0}
!11 = !{!"p1 _ZTS6peak_s", !5, i64 0}
!12 = !{!6, !6, i64 0}
!13 = !{!14, !9, i64 8}
!14 = !{!"peak_s", !9, i64 0, !9, i64 8}
!15 = !{!14, !9, i64 0}
!16 = !{!17, !17, i64 0}
!17 = !{!"p1 _ZTS25activity_callback_thunk_s", !5, i64 0}
!18 = !{!19, !5, i64 0}
!19 = !{!"activity_callback_thunk_s", !5, i64 0, !5, i64 8}
!20 = !{!19, !5, i64 8}
